target datalayout = "e-m:e-p270:32:32-p271:32:32-p272:64:64-i64:64-i128:128-f80:128-n8:16:32:64-S128"
target triple = "x86_64-pc-linux-gnu"

%struct.rb_data_type_struct = type { ptr, %struct.anon.5, ptr, ptr, i64 }
%struct.anon.5 = type { ptr, ptr, ptr, ptr, [1 x ptr] }
%struct.rb_transcoder = type { ptr, ptr, i32, ptr, i32, ptr, i32, i32, i32, i32, i32, i32, i64, ptr, ptr, ptr, ptr, ptr, ptr, ptr, ptr, ptr, ptr }
%struct.rb_econv_t = type { i32, i32, ptr, ptr, ptr, i64, ptr, ptr, ptr, ptr, ptr, ptr, i32, i32, i32, i32, ptr, %struct.anon, ptr, ptr }
%struct.anon = type { i32, ptr, ptr, ptr, ptr, i64, i64 }
%struct.rb_econv_elem_t = type { ptr, ptr, ptr, ptr, ptr, i32 }
%struct.rb_transcoding = type { ptr, i32, i32, i32, i64, i8, i32, i64, i64, %union.anon, i64, i64, %union.anon.0, %union.rb_transcoding_state_t }
%union.anon = type { ptr }
%union.anon.0 = type { ptr }
%union.rb_transcoding_state_t = type { ptr }

@econv_data_type = internal constant %struct.rb_data_type_struct { ptr @.str.110, %struct.anon.5 { ptr null, ptr @econv_free, ptr @econv_memsize, ptr null, [1 x ptr] zeroinitializer }, ptr null, ptr null, i64 1 }, align 8
@rb_eTypeError = external global i64, align 8
@.str.119 = private unnamed_addr constant [33 x i8] c"uninitialized encoding converter\00", align 1

; Function Attrs: nounwind sspstrong uwtable
define internal ptr @make_dummy_encoding(ptr noundef %0) #0 {
  %2 = alloca ptr, align 8
  %3 = alloca ptr, align 8
  %4 = alloca i32, align 4
  store ptr %0, ptr %2, align 8, !tbaa !21
  call void @llvm.lifetime.start.p0(i64 8, ptr %3) #25
  call void @llvm.lifetime.start.p0(i64 4, ptr %4) #25
  %5 = load ptr, ptr %2, align 8, !tbaa !21
  %6 = call i32 @rb_define_dummy_encoding(ptr noundef %5)
  store i32 %6, ptr %4, align 4, !tbaa !29
  %7 = load i32, ptr %4, align 4, !tbaa !29
  %8 = call ptr @rb_enc_from_index(i32 noundef %7)
  store ptr %8, ptr %3, align 8, !tbaa !106
  %9 = load ptr, ptr %3, align 8, !tbaa !106
  call void @llvm.lifetime.end.p0(i64 4, ptr %4) #25
  call void @llvm.lifetime.end.p0(i64 8, ptr %3) #25
  ret ptr %9
}

; Function Attrs: nounwind sspstrong uwtable
define internal ptr @make_encoding(ptr noundef %0) #0 {
  %2 = alloca ptr, align 8
  %3 = alloca ptr, align 8
  store ptr %0, ptr %2, align 8, !tbaa !21
  call void @llvm.lifetime.start.p0(i64 8, ptr %3) #25
  %4 = load ptr, ptr %2, align 8, !tbaa !21
  %5 = call ptr @rb_enc_find(ptr noundef %4)
  store ptr %5, ptr %3, align 8, !tbaa !106
  %6 = load ptr, ptr %3, align 8, !tbaa !106
  %7 = icmp ne ptr %6, null
  br i1 %7, label %11, label %8

8:                                                ; preds = %1
  %9 = load ptr, ptr %2, align 8, !tbaa !21
  %10 = call ptr @make_dummy_encoding(ptr noundef %9)
  store ptr %10, ptr %3, align 8, !tbaa !106
  br label %11

11:                                               ; preds = %8, %1
  %12 = load ptr, ptr %3, align 8, !tbaa !106
  call void @llvm.lifetime.end.p0(i64 8, ptr %3) #25
  ret ptr %12
}

; Function Attrs: nounwind sspstrong uwtable
define internal i64 @make_encobj(ptr noundef %0) #0 {
  %2 = alloca ptr, align 8
  store ptr %0, ptr %2, align 8, !tbaa !21
  %3 = load ptr, ptr %2, align 8, !tbaa !21
  %4 = call ptr @make_encoding(ptr noundef %3)
  %5 = call i64 @rb_enc_from_encoding(ptr noundef %4)
  ret i64 %5
}

; Function Attrs: nounwind sspstrong uwtable
define internal ptr @check_econv(i64 noundef %0) #0 {
  %2 = alloca i64, align 8
  %3 = alloca ptr, align 8
  store i64 %0, ptr %2, align 8, !tbaa !12
  call void @llvm.lifetime.start.p0(i64 8, ptr %3) #25
  %4 = load i64, ptr %2, align 8, !tbaa !12
  %5 = call ptr @rb_check_typeddata(i64 noundef %4, ptr noundef @econv_data_type)
  store ptr %5, ptr %3, align 8, !tbaa !30
  %6 = load ptr, ptr %3, align 8, !tbaa !30
  %7 = icmp ne ptr %6, null
  br i1 %7, label %10, label %8

8:                                                ; preds = %1
  %9 = load i64, ptr @rb_eTypeError, align 8, !tbaa !12
  call void (i64, ptr, ...) @rb_raise(i64 noundef %9, ptr noundef @.str.119) #26
  unreachable

10:                                               ; preds = %1
  %11 = load ptr, ptr %3, align 8, !tbaa !30
  call void @llvm.lifetime.end.p0(i64 8, ptr %3) #25
  ret ptr %11
}

; Function Attrs: nounwind sspstrong uwtable
define internal i64 @econv_convpath(i64 noundef %0) #0 {
  %2 = alloca i64, align 8
  %3 = alloca ptr, align 8
  %4 = alloca i64, align 8
  %5 = alloca i32, align 4
  %6 = alloca ptr, align 8
  %7 = alloca i64, align 8
  store i64 %0, ptr %2, align 8, !tbaa !12
  call void @llvm.lifetime.start.p0(i64 8, ptr %3) #25
  %8 = load i64, ptr %2, align 8, !tbaa !12
  %9 = call ptr @check_econv(i64 noundef %8)
  store ptr %9, ptr %3, align 8, !tbaa !30
  call void @llvm.lifetime.start.p0(i64 8, ptr %4) #25
  call void @llvm.lifetime.start.p0(i64 4, ptr %5) #25
  %10 = call i64 @rb_ary_new()
  store i64 %10, ptr %4, align 8, !tbaa !12
  store i32 0, ptr %5, align 4, !tbaa !29
  br label %11

11:                                               ; preds = %53, %1
  %12 = load i32, ptr %5, align 4, !tbaa !29
  %13 = load ptr, ptr %3, align 8, !tbaa !30
  %14 = getelementptr inbounds nuw %struct.rb_econv_t, ptr %13, i32 0, i32 14
  %15 = load i32, ptr %14, align 8, !tbaa !47
  %16 = icmp slt i32 %12, %15
  br i1 %16, label %17, label %56

17:                                               ; preds = %11
  call void @llvm.lifetime.start.p0(i64 8, ptr %6) #25
  %18 = load ptr, ptr %3, align 8, !tbaa !30
  %19 = getelementptr inbounds nuw %struct.rb_econv_t, ptr %18, i32 0, i32 11
  %20 = load ptr, ptr %19, align 8, !tbaa !48
  %21 = load i32, ptr %5, align 4, !tbaa !29
  %22 = sext i32 %21 to i64
  %23 = getelementptr %struct.rb_econv_elem_t, ptr %20, i64 %22
  %24 = getelementptr inbounds nuw %struct.rb_econv_elem_t, ptr %23, i32 0, i32 0
  %25 = load ptr, ptr %24, align 8, !tbaa !49
  %26 = getelementptr inbounds nuw %struct.rb_transcoding, ptr %25, i32 0, i32 0
  %27 = load ptr, ptr %26, align 8, !tbaa !51
  store ptr %27, ptr %6, align 8, !tbaa !14
  call void @llvm.lifetime.start.p0(i64 8, ptr %7) #25
  %28 = load ptr, ptr %6, align 8, !tbaa !14
  %29 = getelementptr inbounds nuw %struct.rb_transcoder, ptr %28, i32 0, i32 0
  %30 = load ptr, ptr %29, align 8, !tbaa !16
  %31 = load i8, ptr %30, align 1, !tbaa !41
  %32 = sext i8 %31 to i32
  %33 = icmp eq i32 %32, 0
  br i1 %33, label %34, label %39

34:                                               ; preds = %17
  %35 = load ptr, ptr %6, align 8, !tbaa !14
  %36 = getelementptr inbounds nuw %struct.rb_transcoder, ptr %35, i32 0, i32 1
  %37 = load ptr, ptr %36, align 8, !tbaa !22
  %38 = call i64 @rb_str_new_cstr(ptr noundef %37)
  store i64 %38, ptr %7, align 8, !tbaa !12
  br label %49

39:                                               ; preds = %17
  %40 = load ptr, ptr %6, align 8, !tbaa !14
  %41 = getelementptr inbounds nuw %struct.rb_transcoder, ptr %40, i32 0, i32 0
  %42 = load ptr, ptr %41, align 8, !tbaa !16
  %43 = call i64 @make_encobj(ptr noundef %42)
  %44 = load ptr, ptr %6, align 8, !tbaa !14
  %45 = getelementptr inbounds nuw %struct.rb_transcoder, ptr %44, i32 0, i32 1
  %46 = load ptr, ptr %45, align 8, !tbaa !22
  %47 = call i64 @make_encobj(ptr noundef %46)
  %48 = call i64 @rb_assoc_new(i64 noundef %43, i64 noundef %47)
  store i64 %48, ptr %7, align 8, !tbaa !12
  br label %49

49:                                               ; preds = %39, %34
  %50 = load i64, ptr %4, align 8, !tbaa !12
  %51 = load i64, ptr %7, align 8, !tbaa !12
  %52 = call i64 @rb_ary_push(i64 noundef %50, i64 noundef %51)
  call void @llvm.lifetime.end.p0(i64 8, ptr %7) #25
  call void @llvm.lifetime.end.p0(i64 8, ptr %6) #25
  br label %53

53:                                               ; preds = %49
  %54 = load i32, ptr %5, align 4, !tbaa !29
  %55 = add i32 %54, 1
  store i32 %55, ptr %5, align 4, !tbaa !29
  br label %11, !llvm.loop !144

56:                                               ; preds = %11
  %57 = load i64, ptr %4, align 8, !tbaa !12
  call void @llvm.lifetime.end.p0(i64 4, ptr %5) #25
  call void @llvm.lifetime.end.p0(i64 8, ptr %4) #25
  call void @llvm.lifetime.end.p0(i64 8, ptr %3) #25
  ret i64 %57
}