; Function Attrs: nounwind sspstrong uwtable
define internal i64 @econv_convpath(i64 noundef %0) #0 {
  %2 = tail call ptr @rb_check_typeddata(i64 noundef %0, ptr noundef nonnull @econv_data_type) #22
  %.not.i = icmp eq ptr %2, null
  br i1 %.not.i, label %3, label %check_econv.exit

3:                                                ; preds = %1
  %4 = load i64, ptr @rb_eTypeError, align 8, !tbaa !22
  tail call void (i64, ptr, ...) @rb_raise(i64 noundef %4, ptr noundef nonnull @.str.119) #23
  unreachable

check_econv.exit:                                 ; preds = %1
  %5 = tail call i64 @rb_ary_new() #22
  %6 = getelementptr inbounds nuw i8, ptr %2, i64 96
  %7 = load i32, ptr %6, align 8, !tbaa !46
  %8 = icmp sgt i32 %7, 0
  br i1 %8, label %.lr.ph, label %._crit_edge

.lr.ph:                                           ; preds = %check_econv.exit
  %9 = getelementptr inbounds nuw i8, ptr %2, i64 80
  br label %10

10:                                               ; preds = %.lr.ph, %36
  %indvars.iv = phi i64 [ 0, %.lr.ph ], [ %indvars.iv.next, %36 ]
  %11 = load ptr, ptr %9, align 8, !tbaa !47
  %12 = getelementptr %struct.rb_econv_elem_t, ptr %11, i64 %indvars.iv
  %13 = load ptr, ptr %12, align 8, !tbaa !63
  %14 = load ptr, ptr %13, align 8, !tbaa !65
  %15 = load ptr, ptr %14, align 8, !tbaa !12
  %16 = load i8, ptr %15, align 1, !tbaa !27
  %17 = icmp eq i8 %16, 0
  br i1 %17, label %18, label %22

18:                                               ; preds = %10
  %19 = getelementptr inbounds nuw i8, ptr %14, i64 8
  %20 = load ptr, ptr %19, align 8, !tbaa !18
  %21 = tail call i64 @rb_str_new_cstr(ptr noundef %20) #22
  br label %36

22:                                               ; preds = %10
  %23 = tail call ptr @rb_enc_find(ptr noundef nonnull %15) #22
  %.not.i.i = icmp eq ptr %23, null
  br i1 %.not.i.i, label %24, label %make_encobj.exit

24:                                               ; preds = %22
  %25 = tail call i32 @rb_define_dummy_encoding(ptr noundef nonnull %15) #22
  %26 = tail call ptr @rb_enc_from_index(i32 noundef %25) #22
  br label %make_encobj.exit

make_encobj.exit:                                 ; preds = %22, %24
  %.0.i.i = phi ptr [ %23, %22 ], [ %26, %24 ]
  %27 = tail call i64 @rb_enc_from_encoding(ptr noundef %.0.i.i) #22
  %28 = getelementptr inbounds nuw i8, ptr %14, i64 8
  %29 = load ptr, ptr %28, align 8, !tbaa !18
  %30 = tail call ptr @rb_enc_find(ptr noundef %29) #22
  %.not.i.i13 = icmp eq ptr %30, null
  br i1 %.not.i.i13, label %31, label %make_encobj.exit15

31:                                               ; preds = %make_encobj.exit
  %32 = tail call i32 @rb_define_dummy_encoding(ptr noundef %29) #22
  %33 = tail call ptr @rb_enc_from_index(i32 noundef %32) #22
  br label %make_encobj.exit15

make_encobj.exit15:                               ; preds = %make_encobj.exit, %31
  %.0.i.i14 = phi ptr [ %30, %make_encobj.exit ], [ %33, %31 ]
  %34 = tail call i64 @rb_enc_from_encoding(ptr noundef %.0.i.i14) #22
  %35 = tail call i64 @rb_assoc_new(i64 noundef %27, i64 noundef %34) #22
  br label %36

36:                                               ; preds = %make_encobj.exit15, %18
  %.0 = phi i64 [ %21, %18 ], [ %35, %make_encobj.exit15 ]
  %37 = tail call i64 @rb_ary_push(i64 noundef %5, i64 noundef %.0) #22
  %indvars.iv.next = add nuw nsw i64 %indvars.iv, 1
  %38 = load i32, ptr %6, align 8, !tbaa !46
  %39 = sext i32 %38 to i64
  %40 = icmp slt i64 %indvars.iv.next, %39
  br i1 %40, label %10, label %._crit_edge, !llvm.loop !224

._crit_edge:                                      ; preds = %36, %check_econv.exit
  ret i64 %5
}